target datalayout = "e-m:e-p270:32:32-p271:32:32-p272:64:64-i64:64-i128:128-f80:128-n8:16:32:64-S128"
target triple = "x86_64-pc-linux-gnu"

%struct.mbedtls_md_info_t = type { i32, i8, i8 }
%struct.md_name_entry = type { ptr, i32 }

; Function Attrs: nounwind uwtable
define hidden ptr @mbedtls_md_get_name(ptr noundef %0) #0 {
  %2 = alloca ptr, align 8
  %3 = alloca ptr, align 8
  %4 = alloca ptr, align 8
  store ptr %0, ptr %3, align 8, !tbaa !18
  %5 = load ptr, ptr %3, align 8, !tbaa !18
  %6 = icmp eq ptr %5, null
  br i1 %6, label %7, label %8

7:                                                ; preds = %1
  store ptr null, ptr %2, align 8
  br label %31

8:                                                ; preds = %1
  call void @llvm.lifetime.start.p0(i64 8, ptr %4) #9
  store ptr @md_names, ptr %4, align 8, !tbaa !24
  br label %9

9:                                                ; preds = %24, %8
  %10 = load ptr, ptr %4, align 8, !tbaa !24
  %11 = getelementptr inbounds nuw %struct.md_name_entry, ptr %10, i32 0, i32 1
  %12 = load i32, ptr %11, align 8, !tbaa !29
  %13 = icmp ne i32 %12, 0
  br i1 %13, label %14, label %22

14:                                               ; preds = %9
  %15 = load ptr, ptr %4, align 8, !tbaa !24
  %16 = getelementptr inbounds nuw %struct.md_name_entry, ptr %15, i32 0, i32 1
  %17 = load i32, ptr %16, align 8, !tbaa !29
  %18 = load ptr, ptr %3, align 8, !tbaa !18
  %19 = getelementptr inbounds nuw %struct.mbedtls_md_info_t, ptr %18, i32 0, i32 0
  %20 = load i32, ptr %19, align 4, !tbaa !14
  %21 = icmp ne i32 %17, %20
  br label %22

22:                                               ; preds = %14, %9
  %23 = phi i1 [ false, %9 ], [ %21, %14 ]
  br i1 %23, label %24, label %27

24:                                               ; preds = %22
  %25 = load ptr, ptr %4, align 8, !tbaa !24
  %26 = getelementptr inbounds nuw %struct.md_name_entry, ptr %25, i32 1
  store ptr %26, ptr %4, align 8, !tbaa !24
  br label %9, !llvm.loop !30

27:                                               ; preds = %22
  %28 = load ptr, ptr %4, align 8, !tbaa !24
  %29 = getelementptr inbounds nuw %struct.md_name_entry, ptr %28, i32 0, i32 0
  %30 = load ptr, ptr %29, align 8, !tbaa !25
  store ptr %30, ptr %2, align 8
  call void @llvm.lifetime.end.p0(i64 8, ptr %4) #9
  br label %31

31:                                               ; preds = %27, %7
  %32 = load ptr, ptr %2, align 8
  ret ptr %32
}