; Function Attrs: nofree norecurse nosync nounwind memory(argmem: read) uwtable
define hidden ptr @mbedtls_md_get_name(ptr noundef readonly %0) local_unnamed_addr #11 {
  %2 = icmp eq ptr %0, null
  br i1 %2, label %11, label %.preheader

.preheader:                                       ; preds = %1
  %3 = load i32, ptr %0, align 4, !tbaa !10
  br label %4

4:                                                ; preds = %.preheader, %6
  %5 = phi i32 [ 3, %.preheader ], [ %9, %6 ]
  %.011 = phi ptr [ @md_names, %.preheader ], [ %7, %6 ]
  %.not10 = icmp eq i32 %5, %3
  br i1 %.not10, label %.critedge, label %6

6:                                                ; preds = %4
  %7 = getelementptr inbounds nuw i8, ptr %.011, i64 16
  %8 = getelementptr inbounds nuw i8, ptr %.011, i64 24
  %9 = load i32, ptr %8, align 8, !tbaa !21
  %.not = icmp eq i32 %9, 0
  br i1 %.not, label %.critedge, label %4, !llvm.loop !22

.critedge:                                        ; preds = %6, %4
  %.0.lcssa = phi ptr [ getelementptr inbounds nuw (i8, ptr @md_names, i64 192), %6 ], [ %.011, %4 ]
  %10 = load ptr, ptr %.0.lcssa, align 8, !tbaa !16
  br label %11

11:                                               ; preds = %1, %.critedge
  %.07 = phi ptr [ %10, %.critedge ], [ null, %1 ]
  ret ptr %.07
}